target datalayout = "e-m:e-p270:32:32-p271:32:32-p272:64:64-i64:64-i128:128-f80:128-n8:16:32:64-S128"
target triple = "x86_64-unknown-linux-gnu"

%"class.icu_75::ScriptSet" = type { [7 x i32] }
%union.UElement = type { ptr }

; Function Attrs: mustprogress nounwind uwtable
define internal noundef signext i8 @_ZL9U_FAILURE10UErrorCode(i32 noundef %code) #0 {
entry:
  %code.addr = alloca i32, align 4
  store i32 %code, ptr %code.addr, align 4
  %0 = load i32, ptr %code.addr, align 4
  %cmp = icmp sgt i32 %0, 0
  %conv = zext i1 %cmp to i8
  ret i8 %conv
}

; Function Attrs: mustprogress uwtable
define noundef signext i8 @_ZNK6icu_759ScriptSet4testE11UScriptCodeR10UErrorCode(ptr noundef nonnull align 4 dereferenceable(28) %this, i32 noundef %script, ptr noundef nonnull align 4 dereferenceable(4) %status) #2 align 2 {
entry:
  %retval = alloca i8, align 1
  %this.addr = alloca ptr, align 8
  %script.addr = alloca i32, align 4
  %status.addr = alloca ptr, align 8
  %index = alloca i32, align 4
  %bit = alloca i32, align 4
  store ptr %this, ptr %this.addr, align 8
  store i32 %script, ptr %script.addr, align 4
  store ptr %status, ptr %status.addr, align 8
  %this1 = load ptr, ptr %this.addr, align 8
  %0 = load ptr, ptr %status.addr, align 8
  %1 = load i32, ptr %0, align 4
  %call = call noundef signext i8 @_ZL9U_FAILURE10UErrorCode(i32 noundef %1)
  %tobool = icmp ne i8 %call, 0
  br i1 %tobool, label %if.then, label %if.end

if.then:                                          ; preds = %entry
  store i8 0, ptr %retval, align 1
  br label %return

if.end:                                           ; preds = %entry
  %2 = load i32, ptr %script.addr, align 4
  %cmp = icmp slt i32 %2, 0
  br i1 %cmp, label %if.then3, label %lor.lhs.false

lor.lhs.false:                                    ; preds = %if.end
  %3 = load i32, ptr %script.addr, align 4
  %cmp2 = icmp sge i32 %3, 224
  br i1 %cmp2, label %if.then3, label %if.end4

if.then3:                                         ; preds = %lor.lhs.false, %if.end
  %4 = load ptr, ptr %status.addr, align 8
  store i32 1, ptr %4, align 4
  store i8 0, ptr %retval, align 1
  br label %return

if.end4:                                          ; preds = %lor.lhs.false
  %5 = load i32, ptr %script.addr, align 4
  %div = sdiv i32 %5, 32
  store i32 %div, ptr %index, align 4
  %6 = load i32, ptr %script.addr, align 4
  %and = and i32 %6, 31
  %shl = shl i32 1, %and
  store i32 %shl, ptr %bit, align 4
  %bits = getelementptr inbounds %"class.icu_75::ScriptSet", ptr %this1, i32 0, i32 0
  %7 = load i32, ptr %index, align 4
  %idxprom = zext i32 %7 to i64
  %arrayidx = getelementptr inbounds [7 x i32], ptr %bits, i64 0, i64 %idxprom
  %8 = load i32, ptr %arrayidx, align 4
  %9 = load i32, ptr %bit, align 4
  %and5 = and i32 %8, %9
  %cmp6 = icmp ne i32 %and5, 0
  %conv = zext i1 %cmp6 to i8
  store i8 %conv, ptr %retval, align 1
  br label %return

return:                                           ; preds = %if.end4, %if.then3, %if.then
  %10 = load i8, ptr %retval, align 1
  ret i8 %10
}

; Function Attrs: mustprogress uwtable
define noundef i32 @_ZNK6icu_759ScriptSet10nextSetBitEi(ptr noundef nonnull align 4 dereferenceable(28) %this, i32 noundef %fromIndex) #2 align 2 {
entry:
  %retval = alloca i32, align 4
  %this.addr = alloca ptr, align 8
  %fromIndex.addr = alloca i32, align 4
  %status = alloca i32, align 4
  %scriptIndex = alloca i32, align 4
  store ptr %this, ptr %this.addr, align 8
  store i32 %fromIndex, ptr %fromIndex.addr, align 4
  %this1 = load ptr, ptr %this.addr, align 8
  %0 = load i32, ptr %fromIndex.addr, align 4
  %cmp = icmp slt i32 %0, 0
  br i1 %cmp, label %if.then, label %if.end

if.then:                                          ; preds = %entry
  store i32 -1, ptr %retval, align 4
  br label %return

if.end:                                           ; preds = %entry
  store i32 0, ptr %status, align 4
  %1 = load i32, ptr %fromIndex.addr, align 4
  store i32 %1, ptr %scriptIndex, align 4
  br label %for.cond

for.cond:                                         ; preds = %for.inc, %if.end
  %2 = load i32, ptr %scriptIndex, align 4
  %cmp2 = icmp slt i32 %2, 224
  br i1 %cmp2, label %for.body, label %for.end

for.body:                                         ; preds = %for.cond
  %3 = load i32, ptr %scriptIndex, align 4
  %call = call noundef signext i8 @_ZNK6icu_759ScriptSet4testE11UScriptCodeR10UErrorCode(ptr noundef nonnull align 4 dereferenceable(28) %this1, i32 noundef %3, ptr noundef nonnull align 4 dereferenceable(4) %status)
  %tobool = icmp ne i8 %call, 0
  br i1 %tobool, label %if.then3, label %if.end4

if.then3:                                         ; preds = %for.body
  %4 = load i32, ptr %scriptIndex, align 4
  store i32 %4, ptr %retval, align 4
  br label %return

if.end4:                                          ; preds = %for.body
  br label %for.inc

for.inc:                                          ; preds = %if.end4
  %5 = load i32, ptr %scriptIndex, align 4
  %inc = add nsw i32 %5, 1
  store i32 %inc, ptr %scriptIndex, align 4
  br label %for.cond, !llvm.loop !13

for.end:                                          ; preds = %for.cond
  store i32 -1, ptr %retval, align 4
  br label %return

return:                                           ; preds = %for.end, %if.then3, %if.then
  %6 = load i32, ptr %retval, align 4
  ret i32 %6
}

; Function Attrs: mustprogress nounwind uwtable
define noundef i32 @_ZNK6icu_759ScriptSet12countMembersEv(ptr noundef nonnull align 4 dereferenceable(28) %this) #0 align 2 {
entry:
  %this.addr = alloca ptr, align 8
  %count = alloca i32, align 4
  %i = alloca i32, align 4
  %x = alloca i32, align 4
  store ptr %this, ptr %this.addr, align 8
  %this1 = load ptr, ptr %this.addr, align 8
  store i32 0, ptr %count, align 4
  store i32 0, ptr %i, align 4
  br label %for.cond

for.cond:                                         ; preds = %for.inc, %entry
  %0 = load i32, ptr %i, align 4
  %cmp = icmp ult i32 %0, 7
  br i1 %cmp, label %for.body, label %for.end

for.body:                                         ; preds = %for.cond
  %bits = getelementptr inbounds %"class.icu_75::ScriptSet", ptr %this1, i32 0, i32 0
  %1 = load i32, ptr %i, align 4
  %idxprom = zext i32 %1 to i64
  %arrayidx = getelementptr inbounds [7 x i32], ptr %bits, i64 0, i64 %idxprom
  %2 = load i32, ptr %arrayidx, align 4
  store i32 %2, ptr %x, align 4
  br label %while.cond

while.cond:                                       ; preds = %while.body, %for.body
  %3 = load i32, ptr %x, align 4
  %cmp2 = icmp ugt i32 %3, 0
  br i1 %cmp2, label %while.body, label %while.end

while.body:                                       ; preds = %while.cond
  %4 = load i32, ptr %count, align 4
  %inc = add nsw i32 %4, 1
  store i32 %inc, ptr %count, align 4
  %5 = load i32, ptr %x, align 4
  %sub = sub i32 %5, 1
  %6 = load i32, ptr %x, align 4
  %and = and i32 %6, %sub
  store i32 %and, ptr %x, align 4
  br label %while.cond, !llvm.loop !10

while.end:                                        ; preds = %while.cond
  br label %for.inc

for.inc:                                          ; preds = %while.end
  %7 = load i32, ptr %i, align 4
  %inc3 = add i32 %7, 1
  store i32 %inc3, ptr %i, align 4
  br label %for.cond, !llvm.loop !11

for.end:                                          ; preds = %for.cond
  %8 = load i32, ptr %count, align 4
  ret i32 %8
}

; Function Attrs: mustprogress uwtable
define signext i8 @uhash_compareScriptSet_75(ptr %key0.coerce, ptr %key1.coerce) #2 {
entry:
  %retval = alloca i8, align 1
  %key0 = alloca %union.UElement, align 8
  %key1 = alloca %union.UElement, align 8
  %s0 = alloca ptr, align 8
  %s1 = alloca ptr, align 8
  %diff = alloca i32, align 4
  %i0 = alloca i32, align 4
  %i1 = alloca i32, align 4
  %coerce.dive = getelementptr inbounds %union.UElement, ptr %key0, i32 0, i32 0
  store ptr %key0.coerce, ptr %coerce.dive, align 8
  %coerce.dive1 = getelementptr inbounds %union.UElement, ptr %key1, i32 0, i32 0
  store ptr %key1.coerce, ptr %coerce.dive1, align 8
  %0 = load ptr, ptr %key0, align 8
  store ptr %0, ptr %s0, align 8
  %1 = load ptr, ptr %key1, align 8
  store ptr %1, ptr %s1, align 8
  %2 = load ptr, ptr %s0, align 8
  %call = call noundef i32 @_ZNK6icu_759ScriptSet12countMembersEv(ptr noundef nonnull align 4 dereferenceable(28) %2)
  %3 = load ptr, ptr %s1, align 8
  %call2 = call noundef i32 @_ZNK6icu_759ScriptSet12countMembersEv(ptr noundef nonnull align 4 dereferenceable(28) %3)
  %sub = sub nsw i32 %call, %call2
  store i32 %sub, ptr %diff, align 4
  %4 = load i32, ptr %diff, align 4
  %cmp = icmp ne i32 %4, 0
  br i1 %cmp, label %if.then, label %if.end

if.then:                                          ; preds = %entry
  %5 = load i32, ptr %diff, align 4
  %conv = trunc i32 %5 to i8
  store i8 %conv, ptr %retval, align 1
  br label %return

if.end:                                           ; preds = %entry
  %6 = load ptr, ptr %s0, align 8
  %call3 = call noundef i32 @_ZNK6icu_759ScriptSet10nextSetBitEi(ptr noundef nonnull align 4 dereferenceable(28) %6, i32 noundef 0)
  store i32 %call3, ptr %i0, align 4
  %7 = load ptr, ptr %s1, align 8
  %call4 = call noundef i32 @_ZNK6icu_759ScriptSet10nextSetBitEi(ptr noundef nonnull align 4 dereferenceable(28) %7, i32 noundef 0)
  store i32 %call4, ptr %i1, align 4
  br label %while.cond

while.cond:                                       ; preds = %while.body, %if.end
  %8 = load i32, ptr %i0, align 4
  %9 = load i32, ptr %i1, align 4
  %sub5 = sub nsw i32 %8, %9
  store i32 %sub5, ptr %diff, align 4
  %cmp6 = icmp eq i32 %sub5, 0
  br i1 %cmp6, label %land.rhs, label %land.end

land.rhs:                                         ; preds = %while.cond
  %10 = load i32, ptr %i0, align 4
  %cmp7 = icmp sgt i32 %10, 0
  br label %land.end

land.end:                                         ; preds = %land.rhs, %while.cond
  %11 = phi i1 [ false, %while.cond ], [ %cmp7, %land.rhs ]
  br i1 %11, label %while.body, label %while.end

while.body:                                       ; preds = %land.end
  %12 = load ptr, ptr %s0, align 8
  %13 = load i32, ptr %i0, align 4
  %add = add nsw i32 %13, 1
  %call8 = call noundef i32 @_ZNK6icu_759ScriptSet10nextSetBitEi(ptr noundef nonnull align 4 dereferenceable(28) %12, i32 noundef %add)
  store i32 %call8, ptr %i0, align 4
  %14 = load ptr, ptr %s1, align 8
  %15 = load i32, ptr %i1, align 4
  %add9 = add nsw i32 %15, 1
  %call10 = call noundef i32 @_ZNK6icu_759ScriptSet10nextSetBitEi(ptr noundef nonnull align 4 dereferenceable(28) %14, i32 noundef %add9)
  store i32 %call10, ptr %i1, align 4
  br label %while.cond, !llvm.loop !19

while.end:                                        ; preds = %land.end
  %16 = load i32, ptr %diff, align 4
  %conv11 = trunc i32 %16 to i8
  store i8 %conv11, ptr %retval, align 1
  br label %return

return:                                           ; preds = %while.end, %if.then
  %17 = load i8, ptr %retval, align 1
  ret i8 %17
}