; Function Attrs: mustprogress nofree norecurse nosync nounwind willreturn memory(argmem: read) uwtable
define signext i8 @uhash_compareScriptSet_75(ptr nocapture readonly %key0.coerce, ptr nocapture readonly %key1.coerce) local_unnamed_addr #5 {
entry:
  br label %for.body.i

for.body.i:                                       ; preds = %for.inc.i, %entry
  %indvars.iv.i = phi i64 [ 0, %entry ], [ %indvars.iv.next.i, %for.inc.i ]
  %count.09.i = phi i32 [ 0, %entry ], [ %count.1.lcssa.i, %for.inc.i ]
  %arrayidx.i = getelementptr inbounds [7 x i32], ptr %key0.coerce, i64 0, i64 %indvars.iv.i
  %0 = load i32, ptr %arrayidx.i, align 4
  %cmp2.not6.i = icmp eq i32 %0, 0
  br i1 %cmp2.not6.i, label %for.inc.i, label %while.body.i

while.body.i:                                     ; preds = %for.body.i, %while.body.i
  %x.08.i = phi i32 [ %and.i, %while.body.i ], [ %0, %for.body.i ]
  %count.17.i = phi i32 [ %inc.i, %while.body.i ], [ %count.09.i, %for.body.i ]
  %inc.i = add nsw i32 %count.17.i, 1
  %sub.i = add i32 %x.08.i, -1
  %and.i = and i32 %sub.i, %x.08.i
  %cmp2.not.i = icmp eq i32 %and.i, 0
  br i1 %cmp2.not.i, label %for.inc.i, label %while.body.i, !llvm.loop !9

for.inc.i:                                        ; preds = %while.body.i, %for.body.i
  %count.1.lcssa.i = phi i32 [ %count.09.i, %for.body.i ], [ %inc.i, %while.body.i ]
  %indvars.iv.next.i = add nuw nsw i64 %indvars.iv.i, 1
  %exitcond.not.i = icmp eq i64 %indvars.iv.next.i, 7
  br i1 %exitcond.not.i, label %for.body.i10, label %for.body.i, !llvm.loop !10

for.body.i10:                                     ; preds = %for.inc.i, %for.inc.i22
  %indvars.iv.i11 = phi i64 [ %indvars.iv.next.i24, %for.inc.i22 ], [ 0, %for.inc.i ]
  %count.09.i12 = phi i32 [ %count.1.lcssa.i23, %for.inc.i22 ], [ 0, %for.inc.i ]
  %arrayidx.i13 = getelementptr inbounds [7 x i32], ptr %key1.coerce, i64 0, i64 %indvars.iv.i11
  %1 = load i32, ptr %arrayidx.i13, align 4
  %cmp2.not6.i14 = icmp eq i32 %1, 0
  br i1 %cmp2.not6.i14, label %for.inc.i22, label %while.body.i15

while.body.i15:                                   ; preds = %for.body.i10, %while.body.i15
  %x.08.i16 = phi i32 [ %and.i20, %while.body.i15 ], [ %1, %for.body.i10 ]
  %count.17.i17 = phi i32 [ %inc.i18, %while.body.i15 ], [ %count.09.i12, %for.body.i10 ]
  %inc.i18 = add nsw i32 %count.17.i17, 1
  %sub.i19 = add i32 %x.08.i16, -1
  %and.i20 = and i32 %sub.i19, %x.08.i16
  %cmp2.not.i21 = icmp eq i32 %and.i20, 0
  br i1 %cmp2.not.i21, label %for.inc.i22, label %while.body.i15, !llvm.loop !9

for.inc.i22:                                      ; preds = %while.body.i15, %for.body.i10
  %count.1.lcssa.i23 = phi i32 [ %count.09.i12, %for.body.i10 ], [ %inc.i18, %while.body.i15 ]
  %indvars.iv.next.i24 = add nuw nsw i64 %indvars.iv.i11, 1
  %exitcond.not.i25 = icmp eq i64 %indvars.iv.next.i24, 7
  br i1 %exitcond.not.i25, label %_ZNK6icu_759ScriptSet12countMembersEv.exit26, label %for.body.i10, !llvm.loop !10

_ZNK6icu_759ScriptSet12countMembersEv.exit26:     ; preds = %for.inc.i22
  %cmp.not = icmp eq i32 %count.1.lcssa.i, %count.1.lcssa.i23
  br i1 %cmp.not, label %_ZNK6icu_759ScriptSet4testE11UScriptCodeR10UErrorCode.exit.i, label %if.then

if.then:                                          ; preds = %_ZNK6icu_759ScriptSet12countMembersEv.exit26
  %sub = sub nsw i32 %count.1.lcssa.i, %count.1.lcssa.i23
  br label %return

_ZNK6icu_759ScriptSet4testE11UScriptCodeR10UErrorCode.exit.i: ; preds = %_ZNK6icu_759ScriptSet12countMembersEv.exit26, %for.inc.i28
  %scriptIndex.011.i = phi i32 [ %inc.i29, %for.inc.i28 ], [ 0, %_ZNK6icu_759ScriptSet12countMembersEv.exit26 ]
  %div5.i.i = lshr i32 %scriptIndex.011.i, 5
  %and.i.i = and i32 %scriptIndex.011.i, 31
  %shl.i.i = shl nuw i32 1, %and.i.i
  %idxprom.i.i = zext nneg i32 %div5.i.i to i64
  %arrayidx.i.i = getelementptr inbounds [7 x i32], ptr %key0.coerce, i64 0, i64 %idxprom.i.i
  %2 = load i32, ptr %arrayidx.i.i, align 4
  %and5.i.i = and i32 %2, %shl.i.i
  %cmp6.i.not.i = icmp eq i32 %and5.i.i, 0
  br i1 %cmp6.i.not.i, label %for.inc.i28, label %_ZNK6icu_759ScriptSet10nextSetBitEi.exit

for.inc.i28:                                      ; preds = %_ZNK6icu_759ScriptSet4testE11UScriptCodeR10UErrorCode.exit.i
  %inc.i29 = add nuw nsw i32 %scriptIndex.011.i, 1
  %exitcond.not.i30 = icmp eq i32 %inc.i29, 224
  br i1 %exitcond.not.i30, label %_ZNK6icu_759ScriptSet10nextSetBitEi.exit, label %_ZNK6icu_759ScriptSet4testE11UScriptCodeR10UErrorCode.exit.i, !llvm.loop !12

_ZNK6icu_759ScriptSet10nextSetBitEi.exit:         ; preds = %_ZNK6icu_759ScriptSet4testE11UScriptCodeR10UErrorCode.exit.i, %for.inc.i28
  %retval.0.i = phi i32 [ %scriptIndex.011.i, %_ZNK6icu_759ScriptSet4testE11UScriptCodeR10UErrorCode.exit.i ], [ -1, %for.inc.i28 ]
  br label %_ZNK6icu_759ScriptSet4testE11UScriptCodeR10UErrorCode.exit.i42

_ZNK6icu_759ScriptSet4testE11UScriptCodeR10UErrorCode.exit.i42: ; preds = %for.inc.i35, %_ZNK6icu_759ScriptSet10nextSetBitEi.exit
  %scriptIndex.011.i32 = phi i32 [ %inc.i37, %for.inc.i35 ], [ 0, %_ZNK6icu_759ScriptSet10nextSetBitEi.exit ]
  %div5.i.i43 = lshr i32 %scriptIndex.011.i32, 5
  %and.i.i44 = and i32 %scriptIndex.011.i32, 31
  %shl.i.i45 = shl nuw i32 1, %and.i.i44
  %idxprom.i.i46 = zext nneg i32 %div5.i.i43 to i64
  %arrayidx.i.i47 = getelementptr inbounds [7 x i32], ptr %key1.coerce, i64 0, i64 %idxprom.i.i46
  %3 = load i32, ptr %arrayidx.i.i47, align 4
  %and5.i.i48 = and i32 %3, %shl.i.i45
  %cmp6.i.not.i49 = icmp eq i32 %and5.i.i48, 0
  br i1 %cmp6.i.not.i49, label %for.inc.i35, label %_ZNK6icu_759ScriptSet10nextSetBitEi.exit50

for.inc.i35:                                      ; preds = %_ZNK6icu_759ScriptSet4testE11UScriptCodeR10UErrorCode.exit.i42
  %inc.i37 = add nuw nsw i32 %scriptIndex.011.i32, 1
  %exitcond.not.i38 = icmp eq i32 %inc.i37, 224
  br i1 %exitcond.not.i38, label %_ZNK6icu_759ScriptSet10nextSetBitEi.exit50, label %_ZNK6icu_759ScriptSet4testE11UScriptCodeR10UErrorCode.exit.i42, !llvm.loop !12

_ZNK6icu_759ScriptSet10nextSetBitEi.exit50:       ; preds = %_ZNK6icu_759ScriptSet4testE11UScriptCodeR10UErrorCode.exit.i42, %for.inc.i35
  %retval.0.i39 = phi i32 [ %scriptIndex.011.i32, %_ZNK6icu_759ScriptSet4testE11UScriptCodeR10UErrorCode.exit.i42 ], [ -1, %for.inc.i35 ]
  %cmp692 = icmp eq i32 %retval.0.i, %retval.0.i39
  %cmp793 = icmp sgt i32 %retval.0.i, 0
  %4 = and i1 %cmp793, %cmp692
  br i1 %4, label %while.body, label %while.end

while.body:                                       ; preds = %_ZNK6icu_759ScriptSet10nextSetBitEi.exit50, %_ZNK6icu_759ScriptSet10nextSetBitEi.exit91
  %i1.095 = phi i32 [ %retval.0.i51, %_ZNK6icu_759ScriptSet10nextSetBitEi.exit91 ], [ %retval.0.i, %_ZNK6icu_759ScriptSet10nextSetBitEi.exit50 ]
  %add = add nuw nsw i32 %i1.095, 1
  %or.cond.i = icmp ult i32 %i1.095, 223
  br i1 %or.cond.i, label %for.body.i52, label %while.end

for.body.i52:                                     ; preds = %while.body, %for.inc.i56
  %scriptIndex.011.i53 = phi i32 [ %inc.i58, %for.inc.i56 ], [ %add, %while.body ]
  %status.010.i54 = phi i32 [ %status.18.i57, %for.inc.i56 ], [ 0, %while.body ]
  %cmp.i.i.i55 = icmp slt i32 %status.010.i54, 1
  br i1 %cmp.i.i.i55, label %if.end.i.i60, label %for.inc.i56

if.end.i.i60:                                     ; preds = %for.body.i52
  %or.cond.i.i61 = icmp ugt i32 %scriptIndex.011.i53, 223
  br i1 %or.cond.i.i61, label %for.inc.i56, label %_ZNK6icu_759ScriptSet4testE11UScriptCodeR10UErrorCode.exit.i62

_ZNK6icu_759ScriptSet4testE11UScriptCodeR10UErrorCode.exit.i62: ; preds = %if.end.i.i60
  %div5.i.i63 = lshr i32 %scriptIndex.011.i53, 5
  %and.i.i64 = and i32 %scriptIndex.011.i53, 31
  %shl.i.i65 = shl nuw i32 1, %and.i.i64
  %idxprom.i.i66 = zext nneg i32 %div5.i.i63 to i64
  %arrayidx.i.i67 = getelementptr inbounds [7 x i32], ptr %key0.coerce, i64 0, i64 %idxprom.i.i66
  %5 = load i32, ptr %arrayidx.i.i67, align 4
  %and5.i.i68 = and i32 %5, %shl.i.i65
  %cmp6.i.not.i69 = icmp eq i32 %and5.i.i68, 0
  br i1 %cmp6.i.not.i69, label %for.inc.i56, label %_ZNK6icu_759ScriptSet10nextSetBitEi.exit70

for.inc.i56:                                      ; preds = %_ZNK6icu_759ScriptSet4testE11UScriptCodeR10UErrorCode.exit.i62, %if.end.i.i60, %for.body.i52
  %status.18.i57 = phi i32 [ %status.010.i54, %_ZNK6icu_759ScriptSet4testE11UScriptCodeR10UErrorCode.exit.i62 ], [ 1, %if.end.i.i60 ], [ %status.010.i54, %for.body.i52 ]
  %inc.i58 = add i32 %scriptIndex.011.i53, 1
  %exitcond.not.i59 = icmp eq i32 %inc.i58, 224
  br i1 %exitcond.not.i59, label %_ZNK6icu_759ScriptSet10nextSetBitEi.exit70, label %for.body.i52, !llvm.loop !12

_ZNK6icu_759ScriptSet10nextSetBitEi.exit70:       ; preds = %_ZNK6icu_759ScriptSet4testE11UScriptCodeR10UErrorCode.exit.i62, %for.inc.i56
  %retval.0.i51 = phi i32 [ %scriptIndex.011.i53, %_ZNK6icu_759ScriptSet4testE11UScriptCodeR10UErrorCode.exit.i62 ], [ -1, %for.inc.i56 ]
  br label %for.body.i73

for.body.i73:                                     ; preds = %_ZNK6icu_759ScriptSet10nextSetBitEi.exit70, %for.inc.i77
  %scriptIndex.011.i74 = phi i32 [ %inc.i79, %for.inc.i77 ], [ %add, %_ZNK6icu_759ScriptSet10nextSetBitEi.exit70 ]
  %status.010.i75 = phi i32 [ %status.18.i78, %for.inc.i77 ], [ 0, %_ZNK6icu_759ScriptSet10nextSetBitEi.exit70 ]
  %cmp.i.i.i76 = icmp slt i32 %status.010.i75, 1
  br i1 %cmp.i.i.i76, label %if.end.i.i81, label %for.inc.i77

if.end.i.i81:                                     ; preds = %for.body.i73
  %or.cond.i.i82 = icmp ugt i32 %scriptIndex.011.i74, 223
  br i1 %or.cond.i.i82, label %for.inc.i77, label %_ZNK6icu_759ScriptSet4testE11UScriptCodeR10UErrorCode.exit.i83

_ZNK6icu_759ScriptSet4testE11UScriptCodeR10UErrorCode.exit.i83: ; preds = %if.end.i.i81
  %div5.i.i84 = lshr i32 %scriptIndex.011.i74, 5
  %and.i.i85 = and i32 %scriptIndex.011.i74, 31
  %shl.i.i86 = shl nuw i32 1, %and.i.i85
  %idxprom.i.i87 = zext nneg i32 %div5.i.i84 to i64
  %arrayidx.i.i88 = getelementptr inbounds [7 x i32], ptr %key1.coerce, i64 0, i64 %idxprom.i.i87
  %6 = load i32, ptr %arrayidx.i.i88, align 4
  %and5.i.i89 = and i32 %6, %shl.i.i86
  %cmp6.i.not.i90 = icmp eq i32 %and5.i.i89, 0
  br i1 %cmp6.i.not.i90, label %for.inc.i77, label %_ZNK6icu_759ScriptSet10nextSetBitEi.exit91

for.inc.i77:                                      ; preds = %_ZNK6icu_759ScriptSet4testE11UScriptCodeR10UErrorCode.exit.i83, %if.end.i.i81, %for.body.i73
  %status.18.i78 = phi i32 [ %status.010.i75, %_ZNK6icu_759ScriptSet4testE11UScriptCodeR10UErrorCode.exit.i83 ], [ 1, %if.end.i.i81 ], [ %status.010.i75, %for.body.i73 ]
  %inc.i79 = add i32 %scriptIndex.011.i74, 1
  %exitcond.not.i80 = icmp eq i32 %inc.i79, 224
  br i1 %exitcond.not.i80, label %_ZNK6icu_759ScriptSet10nextSetBitEi.exit91, label %for.body.i73, !llvm.loop !12

_ZNK6icu_759ScriptSet10nextSetBitEi.exit91:       ; preds = %_ZNK6icu_759ScriptSet4testE11UScriptCodeR10UErrorCode.exit.i83, %for.inc.i77
  %retval.0.i72 = phi i32 [ -1, %for.inc.i77 ], [ %scriptIndex.011.i74, %_ZNK6icu_759ScriptSet4testE11UScriptCodeR10UErrorCode.exit.i83 ]
  %cmp6 = icmp eq i32 %retval.0.i51, %retval.0.i72
  %cmp7 = icmp sgt i32 %retval.0.i51, 0
  %7 = and i1 %cmp7, %cmp6
  br i1 %7, label %while.body, label %while.end, !llvm.loop !19

while.end:                                        ; preds = %while.body, %_ZNK6icu_759ScriptSet10nextSetBitEi.exit91, %_ZNK6icu_759ScriptSet10nextSetBitEi.exit50
  %i0.0.lcssa = phi i32 [ %retval.0.i, %_ZNK6icu_759ScriptSet10nextSetBitEi.exit50 ], [ -1, %while.body ], [ %retval.0.i51, %_ZNK6icu_759ScriptSet10nextSetBitEi.exit91 ]
  %i1.0.lcssa = phi i32 [ %retval.0.i39, %_ZNK6icu_759ScriptSet10nextSetBitEi.exit50 ], [ -1, %while.body ], [ %retval.0.i72, %_ZNK6icu_759ScriptSet10nextSetBitEi.exit91 ]
  %sub5 = sub nsw i32 %i0.0.lcssa, %i1.0.lcssa
  br label %return

return:                                           ; preds = %while.end, %if.then
  %retval.0.in = phi i32 [ %sub, %if.then ], [ %sub5, %while.end ]
  %retval.0 = trunc i32 %retval.0.in to i8
  ret i8 %retval.0
}